target datalayout = "e-m:e-p270:32:32-p271:32:32-p272:64:64-i64:64-i128:128-f80:128-n8:16:32:64-S128"
target triple = "x86_64-pc-linux-gnu"

%"class.std::__cxx11::basic_string" = type { %"struct.std::__cxx11::basic_string<char>::_Alloc_hider", i64, %union.anon }
%"struct.std::__cxx11::basic_string<char>::_Alloc_hider" = type { ptr }
%union.anon = type { i64, [8 x i8] }
%class.DfgGraph = type { %class.V3List, %class.V3List.96, %class.V3List.97, i64, i32, i32, ptr, %"class.std::__cxx11::basic_string" }
%class.V3List = type { ptr, ptr }
%class.V3List.96 = type { ptr, ptr }
%class.V3List.97 = type { ptr, ptr }
%class.DfgVertex = type { ptr, %class.V3ListLinks, ptr, ptr, ptr, ptr, %class.VDfgType, i32, ptr }
%class.V3ListLinks = type { ptr, ptr }
%class.VDfgType = type { i16 }
%class.anon.159 = type { ptr }

; Function Attrs: mustprogress nounwind uwtable
define linkonce_odr dso_local noundef zeroext i16 @_ZNK8VDfgTypecvNS_2enEEv(ptr noundef nonnull align 2 dereferenceable(2) %0) #4 comdat align 2 {
  %2 = alloca ptr, align 8
  store ptr %0, ptr %2, align 8
  %3 = load ptr, ptr %2, align 8
  %4 = getelementptr inbounds %class.VDfgType, ptr %3, i32 0, i32 0
  %5 = load i16, ptr %4, align 2
  ret i16 %5
}

; Function Attrs: mustprogress nounwind uwtable
define linkonce_odr dso_local noundef zeroext i1 @_Zeq8VDfgTypeNS_2enE(i16 %0, i16 noundef zeroext %1) #4 comdat {
  %3 = alloca %class.VDfgType, align 2
  %4 = alloca i16, align 2
  %5 = getelementptr inbounds %class.VDfgType, ptr %3, i32 0, i32 0
  store i16 %0, ptr %5, align 2
  store i16 %1, ptr %4, align 2
  %6 = getelementptr inbounds %class.VDfgType, ptr %3, i32 0, i32 0
  %7 = load i16, ptr %6, align 2
  %8 = zext i16 %7 to i32
  %9 = load i16, ptr %4, align 2
  %10 = zext i16 %9 to i32
  %11 = icmp eq i32 %8, %10
  ret i1 %11
}

; Function Attrs: mustprogress nounwind uwtable
define linkonce_odr dso_local i16 @_ZNK9DfgVertex4typeEv(ptr noundef nonnull align 8 dereferenceable(72) %0) #4 comdat align 2 {
  %2 = alloca %class.VDfgType, align 2
  %3 = alloca ptr, align 8
  store ptr %0, ptr %3, align 8
  %4 = load ptr, ptr %3, align 8
  %5 = getelementptr inbounds %class.DfgVertex, ptr %4, i32 0, i32 6
  call void @llvm.memcpy.p0.p0.i64(ptr align 2 %2, ptr align 8 %5, i64 2, i1 false)
  %6 = getelementptr inbounds %class.VDfgType, ptr %2, i32 0, i32 0
  %7 = load i16, ptr %6, align 2
  ret i16 %7
}

; Function Attrs: mustprogress uwtable
define linkonce_odr dso_local noundef zeroext i1 @_ZN9DfgVertex15privateTypeTestI12DfgVertexVarEEbPKS_(ptr noundef %0) #5 comdat align 2 {
  %2 = alloca ptr, align 8
  %3 = alloca %class.VDfgType, align 2
  %4 = alloca %class.VDfgType, align 2
  store ptr %0, ptr %2, align 8
  %5 = load ptr, ptr %2, align 8
  %6 = call i16 @_ZNK9DfgVertex4typeEv(ptr noundef nonnull align 8 dereferenceable(72) %5)
  %7 = getelementptr inbounds %class.VDfgType, ptr %3, i32 0, i32 0
  store i16 %6, ptr %7, align 2
  %8 = call noundef zeroext i16 @_ZNK8VDfgTypecvNS_2enEEv(ptr noundef nonnull align 2 dereferenceable(2) %3)
  %9 = zext i16 %8 to i32
  %10 = icmp sge i32 %9, 152
  br i1 %10, label %11, label %18

11:                                               ; preds = %1
  %12 = load ptr, ptr %2, align 8
  %13 = call i16 @_ZNK9DfgVertex4typeEv(ptr noundef nonnull align 8 dereferenceable(72) %12)
  %14 = getelementptr inbounds %class.VDfgType, ptr %4, i32 0, i32 0
  store i16 %13, ptr %14, align 2
  %15 = call noundef zeroext i16 @_ZNK8VDfgTypecvNS_2enEEv(ptr noundef nonnull align 2 dereferenceable(2) %4)
  %16 = zext i16 %15 to i32
  %17 = icmp sle i32 %16, 153
  br label %18

18:                                               ; preds = %11, %1
  %19 = phi i1 [ false, %1 ], [ %17, %11 ]
  ret i1 %19
}

; Function Attrs: mustprogress uwtable
define linkonce_odr dso_local noundef zeroext i1 @_ZN9DfgVertex15privateTypeTestI8DfgConstEEbPKS_(ptr noundef %0) #5 comdat align 2 {
  %2 = alloca ptr, align 8
  %3 = alloca %class.VDfgType, align 2
  store ptr %0, ptr %2, align 8
  %4 = load ptr, ptr %2, align 8
  %5 = call i16 @_ZNK9DfgVertex4typeEv(ptr noundef nonnull align 8 dereferenceable(72) %4)
  %6 = getelementptr inbounds %class.VDfgType, ptr %3, i32 0, i32 0
  store i16 %5, ptr %6, align 2
  %7 = getelementptr inbounds %class.VDfgType, ptr %3, i32 0, i32 0
  %8 = load i16, ptr %7, align 2
  %9 = call noundef zeroext i1 @_Zeq8VDfgTypeNS_2enE(i16 %8, i16 noundef zeroext 0)
  ret i1 %9
}

; Function Attrs: mustprogress nounwind uwtable
define linkonce_odr dso_local void @_ZN9DfgVertex7setUserIPS_EEvT_(ptr noundef nonnull align 8 dereferenceable(72) %0, ptr noundef %1) #4 comdat align 2 {
  %3 = alloca ptr, align 8
  %4 = alloca ptr, align 8
  %5 = alloca ptr, align 8
  %6 = alloca i32, align 4
  store ptr %0, ptr %3, align 8
  store ptr %1, ptr %4, align 8
  %7 = load ptr, ptr %3, align 8
  %8 = getelementptr inbounds %class.DfgVertex, ptr %7, i32 0, i32 8
  store ptr %8, ptr %5, align 8
  %9 = getelementptr inbounds %class.DfgVertex, ptr %7, i32 0, i32 5
  %10 = load ptr, ptr %9, align 8
  %11 = getelementptr inbounds %class.DfgGraph, ptr %10, i32 0, i32 4
  %12 = load i32, ptr %11, align 8
  store i32 %12, ptr %6, align 4
  %13 = load i32, ptr %6, align 4
  %14 = getelementptr inbounds %class.DfgVertex, ptr %7, i32 0, i32 7
  store i32 %13, ptr %14, align 4
  %15 = load ptr, ptr %4, align 8
  %16 = load ptr, ptr %5, align 8
  store ptr %15, ptr %16, align 8
  ret void
}

; Function Attrs: mustprogress nounwind uwtable
define linkonce_odr dso_local noundef nonnull align 8 dereferenceable(8) ptr @_ZN9DfgVertex7getUserIPS_EERT_v(ptr noundef nonnull align 8 dereferenceable(72) %0) #4 comdat align 2 {
  %2 = alloca ptr, align 8
  %3 = alloca ptr, align 8
  store ptr %0, ptr %2, align 8
  %4 = load ptr, ptr %2, align 8
  %5 = getelementptr inbounds %class.DfgVertex, ptr %4, i32 0, i32 8
  store ptr %5, ptr %3, align 8
  %6 = load ptr, ptr %3, align 8
  ret ptr %6
}

; Function Attrs: mustprogress uwtable
define linkonce_odr dso_local noundef zeroext i1 @_ZNK9DfgVertex2isI12DfgVertexVarEEbv(ptr noundef nonnull align 8 dereferenceable(72) %0) #5 comdat align 2 {
  %2 = alloca ptr, align 8
  store ptr %0, ptr %2, align 8
  %3 = load ptr, ptr %2, align 8
  %4 = call noundef zeroext i1 @_ZN9DfgVertex15privateTypeTestI12DfgVertexVarEEbPKS_(ptr noundef %3)
  ret i1 %4
}

; Function Attrs: mustprogress uwtable
define linkonce_odr dso_local noundef zeroext i1 @_ZNK9DfgVertex2isI8DfgConstEEbv(ptr noundef nonnull align 8 dereferenceable(72) %0) #5 comdat align 2 {
  %2 = alloca ptr, align 8
  store ptr %0, ptr %2, align 8
  %3 = load ptr, ptr %2, align 8
  %4 = call noundef zeroext i1 @_ZN9DfgVertex15privateTypeTestI8DfgConstEEbPKS_(ptr noundef %3)
  ret i1 %4
}

; Function Attrs: mustprogress uwtable
define internal void @"_ZZN11V3DfgPasses12removeUnusedER8DfgGraphENK3$_0clER9DfgVertex"(ptr noundef nonnull align 8 dereferenceable(8) %0, ptr noundef nonnull align 8 dereferenceable(72) %1) #5 align 2 {
  %3 = alloca ptr, align 8
  %4 = alloca ptr, align 8
  store ptr %0, ptr %3, align 8
  store ptr %1, ptr %4, align 8
  %5 = load ptr, ptr %3, align 8
  %6 = load ptr, ptr %4, align 8
  %7 = call noundef zeroext i1 @_ZNK9DfgVertex2isI8DfgConstEEbv(ptr noundef nonnull align 8 dereferenceable(72) %6)
  br i1 %7, label %11, label %8

8:                                                ; preds = %2
  %9 = load ptr, ptr %4, align 8
  %10 = call noundef zeroext i1 @_ZNK9DfgVertex2isI12DfgVertexVarEEbv(ptr noundef nonnull align 8 dereferenceable(72) %9)
  br i1 %10, label %11, label %12

11:                                               ; preds = %8, %2
  br label %26

12:                                               ; preds = %8
  %13 = load ptr, ptr %4, align 8
  %14 = call noundef nonnull align 8 dereferenceable(8) ptr @_ZN9DfgVertex7getUserIPS_EERT_v(ptr noundef nonnull align 8 dereferenceable(72) %13)
  %15 = load ptr, ptr %14, align 8
  %16 = icmp ne ptr %15, null
  br i1 %16, label %17, label %18

17:                                               ; preds = %12
  br label %26

18:                                               ; preds = %12
  %19 = load ptr, ptr %4, align 8
  %20 = getelementptr inbounds %class.anon.159, ptr %5, i32 0, i32 0
  %21 = load ptr, ptr %20, align 8
  %22 = load ptr, ptr %21, align 8
  call void @_ZN9DfgVertex7setUserIPS_EEvT_(ptr noundef nonnull align 8 dereferenceable(72) %19, ptr noundef %22)
  %23 = load ptr, ptr %4, align 8
  %24 = getelementptr inbounds %class.anon.159, ptr %5, i32 0, i32 0
  %25 = load ptr, ptr %24, align 8
  store ptr %23, ptr %25, align 8
  br label %26

26:                                               ; preds = %18, %17, %11
  ret void
}

; Function Attrs: mustprogress nounwind uwtable
define linkonce_odr dso_local noundef ptr @_ZNKSt9_Any_data9_M_accessEv(ptr noundef nonnull align 8 dereferenceable(16) %0) #4 comdat align 2 {
  %2 = alloca ptr, align 8
  store ptr %0, ptr %2, align 8
  %3 = load ptr, ptr %2, align 8
  %4 = getelementptr inbounds [16 x i8], ptr %3, i64 0, i64 0
  ret ptr %4
}

; Function Attrs: mustprogress uwtable
define internal void @"_ZSt13__invoke_implIvRZN11V3DfgPasses12removeUnusedER8DfgGraphE3$_0JR9DfgVertexEET_St14__invoke_otherOT0_DpOT1_"(ptr noundef nonnull align 8 dereferenceable(8) %0, ptr noundef nonnull align 8 dereferenceable(72) %1) #5 {
  %3 = alloca ptr, align 8
  %4 = alloca ptr, align 8
  store ptr %0, ptr %3, align 8
  store ptr %1, ptr %4, align 8
  %5 = load ptr, ptr %3, align 8
  %6 = load ptr, ptr %4, align 8
  call void @"_ZZN11V3DfgPasses12removeUnusedER8DfgGraphENK3$_0clER9DfgVertex"(ptr noundef nonnull align 8 dereferenceable(8) %5, ptr noundef nonnull align 8 dereferenceable(72) %6)
  ret void
}

; Function Attrs: mustprogress nounwind uwtable
define internal noundef nonnull align 8 dereferenceable(8) ptr @"_ZNKSt9_Any_data9_M_accessIZN11V3DfgPasses12removeUnusedER8DfgGraphE3$_0EERKT_v"(ptr noundef nonnull align 8 dereferenceable(16) %0) #4 align 2 {
  %2 = alloca ptr, align 8
  store ptr %0, ptr %2, align 8
  %3 = load ptr, ptr %2, align 8
  %4 = call noundef ptr @_ZNKSt9_Any_data9_M_accessEv(ptr noundef nonnull align 8 dereferenceable(16) %3) #3
  ret ptr %4
}

; Function Attrs: mustprogress uwtable
define internal void @"_ZSt10__invoke_rIvRZN11V3DfgPasses12removeUnusedER8DfgGraphE3$_0JR9DfgVertexEENSt9enable_ifIX16is_invocable_r_vIT_T0_DpT1_EES8_E4typeEOS9_DpOSA_"(ptr noundef nonnull align 8 dereferenceable(8) %0, ptr noundef nonnull align 8 dereferenceable(72) %1) #5 {
  %3 = alloca ptr, align 8
  %4 = alloca ptr, align 8
  store ptr %0, ptr %3, align 8
  store ptr %1, ptr %4, align 8
  %5 = load ptr, ptr %3, align 8
  %6 = load ptr, ptr %4, align 8
  call void @"_ZSt13__invoke_implIvRZN11V3DfgPasses12removeUnusedER8DfgGraphE3$_0JR9DfgVertexEET_St14__invoke_otherOT0_DpOT1_"(ptr noundef nonnull align 8 dereferenceable(8) %5, ptr noundef nonnull align 8 dereferenceable(72) %6)
  ret void
}

; Function Attrs: mustprogress nounwind uwtable
define internal noundef ptr @"_ZNSt14_Function_base13_Base_managerIZN11V3DfgPasses12removeUnusedER8DfgGraphE3$_0E14_M_get_pointerERKSt9_Any_data"(ptr noundef nonnull align 8 dereferenceable(16) %0) #4 align 2 {
  %2 = alloca ptr, align 8
  %3 = alloca ptr, align 8
  store ptr %0, ptr %2, align 8
  %4 = load ptr, ptr %2, align 8
  %5 = call noundef nonnull align 8 dereferenceable(8) ptr @"_ZNKSt9_Any_data9_M_accessIZN11V3DfgPasses12removeUnusedER8DfgGraphE3$_0EERKT_v"(ptr noundef nonnull align 8 dereferenceable(16) %4) #3
  store ptr %5, ptr %3, align 8
  %6 = load ptr, ptr %3, align 8
  ret ptr %6
}

; Function Attrs: mustprogress uwtable
define internal void @"_ZNSt17_Function_handlerIFvR9DfgVertexEZN11V3DfgPasses12removeUnusedER8DfgGraphE3$_0E9_M_invokeERKSt9_Any_dataS1_"(ptr noundef nonnull align 8 dereferenceable(16) %0, ptr noundef nonnull align 8 dereferenceable(72) %1) #5 align 2 {
  %3 = alloca ptr, align 8
  %4 = alloca ptr, align 8
  store ptr %0, ptr %3, align 8
  store ptr %1, ptr %4, align 8
  %5 = load ptr, ptr %3, align 8
  %6 = call noundef ptr @"_ZNSt14_Function_base13_Base_managerIZN11V3DfgPasses12removeUnusedER8DfgGraphE3$_0E14_M_get_pointerERKSt9_Any_data"(ptr noundef nonnull align 8 dereferenceable(16) %5) #3
  %7 = load ptr, ptr %4, align 8
  call void @"_ZSt10__invoke_rIvRZN11V3DfgPasses12removeUnusedER8DfgGraphE3$_0JR9DfgVertexEENSt9enable_ifIX16is_invocable_r_vIT_T0_DpT1_EES8_E4typeEOS9_DpOSA_"(ptr noundef nonnull align 8 dereferenceable(8) %6, ptr noundef nonnull align 8 dereferenceable(72) %7)
  ret void
}