; Function Attrs: mustprogress nofree norecurse nosync nounwind willreturn memory(readwrite, inaccessiblemem: none) uwtable
define internal void @"_ZNSt17_Function_handlerIFvR9DfgVertexEZN11V3DfgPasses12removeUnusedER8DfgGraphE3$_0E9_M_invokeERKSt9_Any_dataS1_"(ptr nocapture noundef nonnull readonly align 8 dereferenceable(16) %0, ptr noundef nonnull align 8 dereferenceable(72) %1) #17 align 2 {
  %3 = getelementptr inbounds i8, ptr %1, i64 56
  %.sroa.0.0.copyload.i.i.i.i.i.i = load i16, ptr %3, align 8
  switch i16 %.sroa.0.0.copyload.i.i.i.i.i.i, label %4 [
    i16 153, label %"_ZSt10__invoke_rIvRZN11V3DfgPasses12removeUnusedER8DfgGraphE3$_0JR9DfgVertexEENSt9enable_ifIX16is_invocable_r_vIT_T0_DpT1_EES8_E4typeEOS9_DpOSA_.exit"
    i16 152, label %"_ZSt10__invoke_rIvRZN11V3DfgPasses12removeUnusedER8DfgGraphE3$_0JR9DfgVertexEENSt9enable_ifIX16is_invocable_r_vIT_T0_DpT1_EES8_E4typeEOS9_DpOSA_.exit"
    i16 0, label %"_ZSt10__invoke_rIvRZN11V3DfgPasses12removeUnusedER8DfgGraphE3$_0JR9DfgVertexEENSt9enable_ifIX16is_invocable_r_vIT_T0_DpT1_EES8_E4typeEOS9_DpOSA_.exit"
  ]

4:                                                ; preds = %2
  %5 = getelementptr inbounds i8, ptr %1, i64 64
  %6 = load ptr, ptr %5, align 8
  %.not.i.i.i = icmp eq ptr %6, null
  br i1 %.not.i.i.i, label %7, label %"_ZSt10__invoke_rIvRZN11V3DfgPasses12removeUnusedER8DfgGraphE3$_0JR9DfgVertexEENSt9enable_ifIX16is_invocable_r_vIT_T0_DpT1_EES8_E4typeEOS9_DpOSA_.exit"

7:                                                ; preds = %4
  %8 = load ptr, ptr %0, align 8
  %9 = load ptr, ptr %8, align 8
  %10 = getelementptr inbounds i8, ptr %1, i64 48
  %11 = load ptr, ptr %10, align 8
  %12 = getelementptr inbounds i8, ptr %11, i64 56
  %13 = load i32, ptr %12, align 8
  %14 = getelementptr inbounds i8, ptr %1, i64 60
  store i32 %13, ptr %14, align 4
  store ptr %9, ptr %5, align 8
  %15 = load ptr, ptr %0, align 8
  store ptr %1, ptr %15, align 8
  br label %"_ZSt10__invoke_rIvRZN11V3DfgPasses12removeUnusedER8DfgGraphE3$_0JR9DfgVertexEENSt9enable_ifIX16is_invocable_r_vIT_T0_DpT1_EES8_E4typeEOS9_DpOSA_.exit"

"_ZSt10__invoke_rIvRZN11V3DfgPasses12removeUnusedER8DfgGraphE3$_0JR9DfgVertexEENSt9enable_ifIX16is_invocable_r_vIT_T0_DpT1_EES8_E4typeEOS9_DpOSA_.exit": ; preds = %2, %2, %2, %4, %7
  ret void
}